; Function Attrs: mustprogress uwtable
define void @_ZN5folly12EventHandlerC2EPNS_9EventBaseENS_13NetworkSocketE(ptr noundef nonnull align 8 dereferenceable(184) initializes((0, 8), (136, 164)) %0, ptr noundef %1, i32 %2) unnamed_addr #1 align 2 personality ptr @__gxx_personality_v0 {
  store ptr getelementptr inbounds nuw inrange(-16, 24) (i8, ptr @_ZTVN5folly12EventHandlerE, i64 16), ptr %0, align 8, !tbaa !7
  %4 = getelementptr inbounds nuw i8, ptr %0, i64 8
  %5 = getelementptr inbounds nuw i8, ptr %0, i64 136
  tail call void @llvm.memset.p0.i64(ptr noundef nonnull align 8 dereferenceable(28) %5, i8 0, i64 28, i1 false)
  invoke void @event_set(ptr noundef nonnull align 8 dereferenceable(168) %4, i32 noundef %2, i16 noundef signext 0, ptr noundef nonnull @_ZN5folly12EventHandler16libeventCallbackEisPv, ptr noundef nonnull %0)
          to label %_ZN5folly14EventBaseEvent12eb_event_setEisPFvisPvES1_.exit unwind label %8

_ZN5folly14EventBaseEvent12eb_event_setEisPFvisPvES1_.exit: ; preds = %3
  %.not = icmp eq ptr %1, null
  br i1 %.not, label %10, label %6

6:                                                ; preds = %_ZN5folly14EventBaseEvent12eb_event_setEisPFvisPvES1_.exit
  %7 = invoke noundef i32 @_ZN5folly14EventBaseEvent17eb_event_base_setEPNS_9EventBaseE(ptr noundef nonnull align 8 dereferenceable(168) %4, ptr noundef nonnull %1)
          to label %_ZN5folly12EventHandler12setEventBaseEPNS_9EventBaseE.exit unwind label %8

8:                                                ; preds = %6, %3, %10
  %9 = landingpad { ptr, i32 }
          cleanup
  tail call void @_ZN5folly14EventBaseEventD2Ev(ptr noundef nonnull align 8 dereferenceable(168) %4) #17
  resume { ptr, i32 } %9

10:                                               ; preds = %_ZN5folly14EventBaseEvent12eb_event_setEisPFvisPvES1_.exit
  invoke void @_ZN5folly14EventBaseEvent10eb_ev_baseEPNS_9EventBaseE(ptr noundef nonnull align 8 dereferenceable(168) %4, ptr noundef null)
          to label %_ZN5folly12EventHandler12setEventBaseEPNS_9EventBaseE.exit unwind label %8

_ZN5folly12EventHandler12setEventBaseEPNS_9EventBaseE.exit: ; preds = %10, %6
  %.sink = phi ptr [ %1, %6 ], [ null, %10 ]
  %11 = getelementptr inbounds nuw i8, ptr %0, i64 176
  store ptr %.sink, ptr %11, align 8, !tbaa !10
  ret void
}